#include <math.h>
#include <stdio.h>
#include <stdlib.h>
#include <string.h>

void main()
{
	 int i,k;
	 scanf("%d",&k);
	 for(i=0;i<k;i++)
	 {
		 int n;
		 scanf("%d",&n);
		 double *p,*p1;
		 double a,s,sum;
		 p=(double*)calloc(n,sizeof(double));
		 for(p1=p;p1<(p+n);p1++)
		 {
			 scanf("%lf",p1);
		 }
		 for(sum=0,p1=p;p1<(p+n);p1++)
		 {
			 sum=sum+(*p1);
		 }
		 a=sum/n;
		 for(s=0,p1=p;p1<(p+n);p1++)
		 {
			 s=s+((*p1)-a)*((*p1)-a);
		 }
		 s=sqrt(s/n);  
		 printf("%.5f\n",s);
	 }

	 
}
